target datalayout = "e-m:e-p270:32:32-p271:32:32-p272:64:64-i64:64-i128:128-f80:128-n8:16:32:64-S128"
target triple = "x86_64-pc-linux-gnu"

%struct.ossl_store_info_st = type { i32, %union.anon.3 }
%union.anon.3 = type { %struct.anon.4 }
%struct.anon.4 = type { ptr, ptr }

@.str.2 = private unnamed_addr constant [36 x i8] c"../openssl/crypto/store/store_lib.c\00", align 1
@__func__.OSSL_STORE_INFO_new_PUBKEY = private unnamed_addr constant [27 x i8] c"OSSL_STORE_INFO_new_PUBKEY\00", align 1

; Function Attrs: nounwind uwtable
define ptr @OSSL_STORE_INFO_new(i32 noundef %0, ptr noundef %1) #0 {
  %3 = alloca ptr, align 8
  %4 = alloca i32, align 4
  %5 = alloca ptr, align 8
  %6 = alloca ptr, align 8
  %7 = alloca i32, align 4
  store i32 %0, ptr %4, align 4, !tbaa !21
  store ptr %1, ptr %5, align 8, !tbaa !12
  call void @llvm.lifetime.start.p0(i64 8, ptr %6) #8
  %8 = call noalias ptr @CRYPTO_zalloc(i64 noundef 24, ptr noundef @.str.2, i32 noundef 609)
  store ptr %8, ptr %6, align 8, !tbaa !77
  %9 = load ptr, ptr %6, align 8, !tbaa !77
  %10 = icmp eq ptr %9, null
  br i1 %10, label %11, label %12

11:                                               ; preds = %2
  store ptr null, ptr %3, align 8
  store i32 1, ptr %7, align 4
  br label %20

12:                                               ; preds = %2
  %13 = load i32, ptr %4, align 4, !tbaa !21
  %14 = load ptr, ptr %6, align 8, !tbaa !77
  %15 = getelementptr inbounds nuw %struct.ossl_store_info_st, ptr %14, i32 0, i32 0
  store i32 %13, ptr %15, align 8, !tbaa !88
  %16 = load ptr, ptr %5, align 8, !tbaa !12
  %17 = load ptr, ptr %6, align 8, !tbaa !77
  %18 = getelementptr inbounds nuw %struct.ossl_store_info_st, ptr %17, i32 0, i32 1
  store ptr %16, ptr %18, align 8, !tbaa !25
  %19 = load ptr, ptr %6, align 8, !tbaa !77
  store ptr %19, ptr %3, align 8
  store i32 1, ptr %7, align 4
  br label %20

20:                                               ; preds = %12, %11
  call void @llvm.lifetime.end.p0(i64 8, ptr %6) #8
  %21 = load ptr, ptr %3, align 8
  ret ptr %21
}

; Function Attrs: nounwind uwtable
define ptr @OSSL_STORE_INFO_new_PUBKEY(ptr noundef %0) #0 {
  %2 = alloca ptr, align 8
  %3 = alloca ptr, align 8
  store ptr %0, ptr %2, align 8, !tbaa !92
  call void @llvm.lifetime.start.p0(i64 8, ptr %3) #8
  %4 = load ptr, ptr %2, align 8, !tbaa !92
  %5 = call ptr @OSSL_STORE_INFO_new(i32 noundef 3, ptr noundef %4)
  store ptr %5, ptr %3, align 8, !tbaa !77
  %6 = load ptr, ptr %3, align 8, !tbaa !77
  %7 = icmp eq ptr %6, null
  br i1 %7, label %8, label %9

8:                                                ; preds = %1
  call void @ERR_new()
  call void @ERR_set_debug(ptr noundef @.str.2, i32 noundef 659, ptr noundef @__func__.OSSL_STORE_INFO_new_PUBKEY)
  call void (i32, i32, ptr, ...) @ERR_set_error(i32 noundef 44, i32 noundef 524332, ptr noundef null)
  br label %9

9:                                                ; preds = %8, %1
  %10 = load ptr, ptr %3, align 8, !tbaa !77
  call void @llvm.lifetime.end.p0(i64 8, ptr %3) #8
  ret ptr %10
}